(i__main__
LogFile
p0
(dp1
S'_installed_files'
p2
(dp3
S'../../../TileCalorimeter/TileRecUtils/x86_64-slc6-gcc48-opt/libTileRecUtilsLib.so'
p4
S'../../../InstallArea/x86_64-slc6-gcc48-opt/lib/libTileRecUtilsLib.so'
p5
sS'../../../TileCalorimeter/TileRecUtils/x86_64-slc6-gcc48-opt/libTileRecUtils.so.debug'
p6
S'../../../InstallArea/x86_64-slc6-gcc48-opt/lib/libTileRecUtils.so.debug'
p7
sS'../../../../../../../../../cvmfs/atlas.cern.ch/repo/sw/software/x86_64-slc6-gcc48-opt/20.1.8/GAUDI/v25r3p2-lcg72a/GaudiPolicy/cmt/fragments/__init__.py'
p8
S'../../../InstallArea/python/TileRecUtils/__init__.py'
p9
sS'../../TileCalorimeter/TileRecUtils/genConf/TileRecUtils'
p10
(dp11
S'../../../TileCalorimeter/TileRecUtils/genConf/TileRecUtils/TileRecUtilsConf.py'
p12
S'../../../InstallArea/python/TileRecUtils/TileRecUtilsConf.py'
p13
ssS'../../../TileCalorimeter/TileRecUtils/x86_64-slc6-gcc48-opt/libTileRecUtils.so'
p14
S'../../../InstallArea/x86_64-slc6-gcc48-opt/lib/libTileRecUtils.so'
p15
sS'../../../TileCalorimeter/TileRecUtils/x86_64-slc6-gcc48-opt/libTileRecUtilsLib.so.debug'
p16
S'../../../InstallArea/x86_64-slc6-gcc48-opt/lib/libTileRecUtilsLib.so.debug'
p17
ssb.