(i__main__
LogFile
p0
(dp1
S'_installed_files'
p2
(dp3
S'../../../LArCalorimeter/LArCellRec/x86_64-slc6-gcc48-opt/libLArCellRec.so'
p4
S'../../../InstallArea/x86_64-slc6-gcc48-opt/lib/libLArCellRec.so'
p5
sS'../../../LArCalorimeter/LArCellRec/x86_64-slc6-gcc48-opt/libLArCellRec.so.debug'
p6
S'../../../InstallArea/x86_64-slc6-gcc48-opt/lib/libLArCellRec.so.debug'
p7
sS'../../../../../../../../../cvmfs/atlas.cern.ch/repo/sw/software/x86_64-slc6-gcc48-opt/20.1.8/GAUDI/v25r3p2-lcg72a/GaudiPolicy/cmt/fragments/__init__.py'
p8
S'../../../InstallArea/python/LArCellRec/__init__.py'
p9
sS'../../LArCalorimeter/LArCellRec/genConf/LArCellRec'
p10
(dp11
S'../../../LArCalorimeter/LArCellRec/genConf/LArCellRec/LArCellRecConf.py'
p12
S'../../../InstallArea/python/LArCellRec/LArCellRecConf.py'
p13
sssb.